; Function Attrs: mustprogress uwtable
define hidden void @_ZN4cvc58internal22TConvSeqProofGenerator21registerConvertedTermENS0_12NodeTemplateILb1EEES3_m(ptr noundef nonnull align 8 dereferenceable(184) %0, ptr noundef readonly captures(none) %1, ptr noundef %2, i64 noundef %3) local_unnamed_addr #3 align 2 personality ptr @__gxx_personality_v0 {
  %5 = alloca %"struct.std::pair", align 8
  %6 = load ptr, ptr %1, align 8, !tbaa !48
  %7 = load ptr, ptr %2, align 8, !tbaa !48
  %8 = icmp eq ptr %6, %7
  br i1 %8, label %41, label %9

9:                                                ; preds = %4
  call void @llvm.lifetime.start.p0(i64 16, ptr nonnull %5) #22
  store ptr %6, ptr %5, align 8, !tbaa !48
  %10 = load i64, ptr %6, align 8
  %11 = lshr i64 %10, 40
  %12 = trunc nuw nsw i64 %11 to i32
  %13 = and i32 %12, 1048575
  %14 = icmp samesign ult i32 %13, 1048574
  br i1 %14, label %15, label %20, !prof !45

15:                                               ; preds = %9
  %16 = add i64 %10, 1099511627776
  %17 = and i64 %16, 1152920405095219200
  %18 = and i64 %10, -1152920405095219201
  %19 = or disjoint i64 %17, %18
  store i64 %19, ptr %6, align 8
  br label %_ZNSt4pairIN4cvc58internal12NodeTemplateILb1EEEmEC2IRS3_RmTnNSt9enable_ifIXaaclsr5_PCCPE22_MoveConstructiblePairIT_T0_EEclsr5_PCCPE30_ImplicitlyMoveConvertiblePairIS9_SA_EEEbE4typeELb1EEEOS9_OSA_.exit

20:                                               ; preds = %9
  %21 = icmp eq i32 %13, 1048574
  br i1 %21, label %22, label %_ZNSt4pairIN4cvc58internal12NodeTemplateILb1EEEmEC2IRS3_RmTnNSt9enable_ifIXaaclsr5_PCCPE22_MoveConstructiblePairIT_T0_EEclsr5_PCCPE30_ImplicitlyMoveConvertiblePairIS9_SA_EEEbE4typeELb1EEEOS9_OSA_.exit, !prof !51

22:                                               ; preds = %20
  %23 = or i64 %10, 1152920405095219200
  store i64 %23, ptr %6, align 8
  tail call void @_ZN4cvc58internal4expr9NodeValue20markRefCountMaxedOutEv(ptr noundef nonnull align 8 dereferenceable(24) %6)
  br label %_ZNSt4pairIN4cvc58internal12NodeTemplateILb1EEEmEC2IRS3_RmTnNSt9enable_ifIXaaclsr5_PCCPE22_MoveConstructiblePairIT_T0_EEclsr5_PCCPE30_ImplicitlyMoveConvertiblePairIS9_SA_EEEbE4typeELb1EEEOS9_OSA_.exit

_ZNSt4pairIN4cvc58internal12NodeTemplateILb1EEEmEC2IRS3_RmTnNSt9enable_ifIXaaclsr5_PCCPE22_MoveConstructiblePairIT_T0_EEclsr5_PCCPE30_ImplicitlyMoveConvertiblePairIS9_SA_EEEbE4typeELb1EEEOS9_OSA_.exit: ; preds = %15, %20, %22
  %24 = getelementptr inbounds nuw i8, ptr %5, i64 8
  store i64 %3, ptr %24, align 8, !tbaa !52
  %25 = getelementptr inbounds nuw i8, ptr %0, i64 40
  %26 = invoke noundef nonnull align 8 dereferenceable(88) ptr @_ZN4cvc57context9CDHashMapISt4pairINS_8internal12NodeTemplateILb1EEEmES5_NS3_16PairHashFunctionIS5_mSt4hashIS5_ES8_ImEEEEixERKS6_(ptr noundef nonnull align 8 dereferenceable(112) %25, ptr noundef nonnull align 8 dereferenceable(16) %5)
          to label %27 unwind label %42

27:                                               ; preds = %_ZNSt4pairIN4cvc58internal12NodeTemplateILb1EEEmEC2IRS3_RmTnNSt9enable_ifIXaaclsr5_PCCPE22_MoveConstructiblePairIT_T0_EEclsr5_PCCPE30_ImplicitlyMoveConvertiblePairIS9_SA_EEEbE4typeELb1EEEOS9_OSA_.exit
  invoke void @_ZN4cvc57context11CDOhash_mapISt4pairINS_8internal12NodeTemplateILb1EEEmES5_NS3_16PairHashFunctionIS5_mSt4hashIS5_ES8_ImEEEE3setERKS5_(ptr noundef nonnull align 8 dereferenceable(88) %26, ptr noundef nonnull align 8 dereferenceable(8) %2)
          to label %_ZN4cvc57context11CDOhash_mapISt4pairINS_8internal12NodeTemplateILb1EEEmES5_NS3_16PairHashFunctionIS5_mSt4hashIS5_ES8_ImEEEEaSERKS5_.exit unwind label %42

_ZN4cvc57context11CDOhash_mapISt4pairINS_8internal12NodeTemplateILb1EEEmES5_NS3_16PairHashFunctionIS5_mSt4hashIS5_ES8_ImEEEEaSERKS5_.exit: ; preds = %27
  %28 = load ptr, ptr %5, align 8, !tbaa !48
  %29 = load i64, ptr %28, align 8
  %30 = and i64 %29, 1152920405095219200
  %.not.i.i.i = icmp eq i64 %30, 1152920405095219200
  br i1 %.not.i.i.i, label %_ZNSt4pairIN4cvc58internal12NodeTemplateILb1EEEmED2Ev.exit, label %31, !prof !51

31:                                               ; preds = %_ZN4cvc57context11CDOhash_mapISt4pairINS_8internal12NodeTemplateILb1EEEmES5_NS3_16PairHashFunctionIS5_mSt4hashIS5_ES8_ImEEEEaSERKS5_.exit
  %32 = add i64 %29, 1152920405095219200
  %33 = and i64 %32, 1152920405095219200
  %34 = and i64 %29, -1152920405095219201
  %35 = or disjoint i64 %33, %34
  store i64 %35, ptr %28, align 8
  %36 = icmp eq i64 %33, 0
  br i1 %36, label %37, label %_ZNSt4pairIN4cvc58internal12NodeTemplateILb1EEEmED2Ev.exit, !prof !51

37:                                               ; preds = %31
  invoke void @_ZN4cvc58internal4expr9NodeValue15markForDeletionEv(ptr noundef nonnull align 8 dereferenceable(24) %28)
          to label %_ZNSt4pairIN4cvc58internal12NodeTemplateILb1EEEmED2Ev.exit unwind label %38

38:                                               ; preds = %37
  %39 = landingpad { ptr, i32 }
          catch ptr null
  %40 = extractvalue { ptr, i32 } %39, 0
  call void @__clang_call_terminate(ptr %40) #23
  unreachable

_ZNSt4pairIN4cvc58internal12NodeTemplateILb1EEEmED2Ev.exit: ; preds = %_ZN4cvc57context11CDOhash_mapISt4pairINS_8internal12NodeTemplateILb1EEEmES5_NS3_16PairHashFunctionIS5_mSt4hashIS5_ES8_ImEEEEaSERKS5_.exit, %31, %37
  call void @llvm.lifetime.end.p0(i64 16, ptr nonnull %5) #22
  br label %41

41:                                               ; preds = %4, %_ZNSt4pairIN4cvc58internal12NodeTemplateILb1EEEmED2Ev.exit
  ret void

42:                                               ; preds = %27, %_ZNSt4pairIN4cvc58internal12NodeTemplateILb1EEEmEC2IRS3_RmTnNSt9enable_ifIXaaclsr5_PCCPE22_MoveConstructiblePairIT_T0_EEclsr5_PCCPE30_ImplicitlyMoveConvertiblePairIS9_SA_EEEbE4typeELb1EEEOS9_OSA_.exit
  %43 = landingpad { ptr, i32 }
          cleanup
  call void @_ZNSt4pairIN4cvc58internal12NodeTemplateILb1EEEmED2Ev(ptr noundef nonnull align 8 dereferenceable(16) %5) #22
  call void @llvm.lifetime.end.p0(i64 16, ptr nonnull %5) #22
  resume { ptr, i32 } %43
}